target datalayout = "e-m:e-p270:32:32-p271:32:32-p272:64:64-i64:64-i128:128-f80:128-n8:16:32:64-S128"
target triple = "x86_64-pc-linux-gnu"

%struct.ARKodeMemRec = type { ptr, double, ptr, i32, i32, double, double, ptr, i32, double, ptr, i32, i32, ptr, ptr, i32, ptr, ptr, i32, ptr, ptr, ptr, ptr, ptr, ptr, ptr, ptr, ptr, ptr, ptr, ptr, ptr, ptr, ptr, i32, ptr, ptr, i32, ptr, i32, ptr, ptr, ptr, ptr, ptr, ptr, ptr, ptr, ptr, ptr, ptr, ptr, ptr, ptr, ptr, ptr, ptr, ptr, ptr, ptr, ptr, ptr, ptr, ptr, ptr, ptr, i32, ptr, ptr, ptr, ptr, ptr, ptr, ptr, i32, ptr, ptr, ptr, i32, ptr, ptr, ptr, ptr, ptr, ptr, ptr, i32, i32, i32, i32, double, double, double, double, double, double, double, double, double, double, i32, ptr, i64, i32, i32, i32, i32, i64, i64, i32, i64, i64, i64, i64, i64, i64, i64, double, double, double, double, double, i32, double, double, i32, i32, i32, i32, i32, i32, i32, i32, ptr, i32, ptr, ptr, ptr, ptr, i32, i32, i32 }

; Function Attrs: nounwind uwtable
define double @arkUpperBoundH0(ptr noundef %0, double noundef %1) #0 {
  %3 = alloca ptr, align 8
  %4 = alloca double, align 8
  %5 = alloca double, align 8
  %6 = alloca double, align 8
  %7 = alloca ptr, align 8
  %8 = alloca ptr, align 8
  store ptr %0, ptr %3, align 8, !tbaa !11
  store double %1, ptr %4, align 8, !tbaa !9
  call void @llvm.lifetime.start.p0(i64 8, ptr %5) #10
  call void @llvm.lifetime.start.p0(i64 8, ptr %6) #10
  call void @llvm.lifetime.start.p0(i64 8, ptr %7) #10
  call void @llvm.lifetime.start.p0(i64 8, ptr %8) #10
  %9 = load ptr, ptr %3, align 8, !tbaa !11
  %10 = getelementptr inbounds nuw %struct.ARKodeMemRec, ptr %9, i32 0, i32 79
  %11 = load ptr, ptr %10, align 8, !tbaa !85
  store ptr %11, ptr %7, align 8, !tbaa !7
  %12 = load ptr, ptr %3, align 8, !tbaa !11
  %13 = getelementptr inbounds nuw %struct.ARKodeMemRec, ptr %12, i32 0, i32 80
  %14 = load ptr, ptr %13, align 8, !tbaa !219
  store ptr %14, ptr %8, align 8, !tbaa !7
  %15 = load ptr, ptr %3, align 8, !tbaa !11
  %16 = getelementptr inbounds nuw %struct.ARKodeMemRec, ptr %15, i32 0, i32 76
  %17 = load ptr, ptr %16, align 8, !tbaa !40
  %18 = load ptr, ptr %8, align 8, !tbaa !7
  call void @N_VAbs(ptr noundef %17, ptr noundef %18)
  %19 = load ptr, ptr %3, align 8, !tbaa !11
  %20 = getelementptr inbounds nuw %struct.ARKodeMemRec, ptr %19, i32 0, i32 13
  %21 = load ptr, ptr %20, align 8, !tbaa !83
  %22 = load ptr, ptr %3, align 8, !tbaa !11
  %23 = getelementptr inbounds nuw %struct.ARKodeMemRec, ptr %22, i32 0, i32 76
  %24 = load ptr, ptr %23, align 8, !tbaa !40
  %25 = load ptr, ptr %7, align 8, !tbaa !7
  %26 = load ptr, ptr %3, align 8, !tbaa !11
  %27 = getelementptr inbounds nuw %struct.ARKodeMemRec, ptr %26, i32 0, i32 14
  %28 = load ptr, ptr %27, align 8, !tbaa !84
  %29 = call i32 %21(ptr noundef %24, ptr noundef %25, ptr noundef %28)
  %30 = load ptr, ptr %7, align 8, !tbaa !7
  %31 = load ptr, ptr %7, align 8, !tbaa !7
  call void @N_VInv(ptr noundef %30, ptr noundef %31)
  %32 = load ptr, ptr %8, align 8, !tbaa !7
  %33 = load ptr, ptr %7, align 8, !tbaa !7
  %34 = load ptr, ptr %7, align 8, !tbaa !7
  call void @N_VLinearSum(double noundef 1.000000e-01, ptr noundef %32, double noundef 1.000000e+00, ptr noundef %33, ptr noundef %34)
  %35 = load ptr, ptr %3, align 8, !tbaa !11
  %36 = getelementptr inbounds nuw %struct.ARKodeMemRec, ptr %35, i32 0, i32 77
  %37 = load ptr, ptr %36, align 8, !tbaa !133
  %38 = load ptr, ptr %8, align 8, !tbaa !7
  call void @N_VAbs(ptr noundef %37, ptr noundef %38)
  %39 = load ptr, ptr %8, align 8, !tbaa !7
  %40 = load ptr, ptr %7, align 8, !tbaa !7
  %41 = load ptr, ptr %7, align 8, !tbaa !7
  call void @N_VDiv(ptr noundef %39, ptr noundef %40, ptr noundef %41)
  %42 = load ptr, ptr %7, align 8, !tbaa !7
  %43 = call double @N_VMaxNorm(ptr noundef %42)
  store double %43, ptr %5, align 8, !tbaa !9
  %44 = load double, ptr %4, align 8, !tbaa !9
  %45 = fmul double 1.000000e-01, %44
  store double %45, ptr %6, align 8, !tbaa !9
  %46 = load double, ptr %6, align 8, !tbaa !9
  %47 = load double, ptr %5, align 8, !tbaa !9
  %48 = fmul double %46, %47
  %49 = fcmp ogt double %48, 1.000000e+00
  br i1 %49, label %50, label %53

50:                                               ; preds = %2
  %51 = load double, ptr %5, align 8, !tbaa !9
  %52 = fdiv double 1.000000e+00, %51
  store double %52, ptr %6, align 8, !tbaa !9
  br label %53

53:                                               ; preds = %50, %2
  %54 = load double, ptr %6, align 8, !tbaa !9
  call void @llvm.lifetime.end.p0(i64 8, ptr %8) #10
  call void @llvm.lifetime.end.p0(i64 8, ptr %7) #10
  call void @llvm.lifetime.end.p0(i64 8, ptr %6) #10
  call void @llvm.lifetime.end.p0(i64 8, ptr %5) #10
  ret double %54
}