; Function Attrs: nounwind uwtable
define double @arkUpperBoundH0(ptr noundef readonly captures(none) %0, double noundef %1) local_unnamed_addr #0 {
  %3 = getelementptr inbounds nuw i8, ptr %0, i64 616
  %4 = load ptr, ptr %3, align 8, !tbaa !91
  %5 = getelementptr inbounds nuw i8, ptr %0, i64 624
  %6 = load ptr, ptr %5, align 8, !tbaa !169
  %7 = getelementptr inbounds nuw i8, ptr %0, i64 592
  %8 = load ptr, ptr %7, align 8, !tbaa !34
  tail call void @N_VAbs(ptr noundef %8, ptr noundef %6) #16
  %9 = getelementptr inbounds nuw i8, ptr %0, i64 88
  %10 = load ptr, ptr %9, align 8, !tbaa !89
  %11 = load ptr, ptr %7, align 8, !tbaa !34
  %12 = getelementptr inbounds nuw i8, ptr %0, i64 96
  %13 = load ptr, ptr %12, align 8, !tbaa !90
  %14 = tail call i32 %10(ptr noundef %11, ptr noundef %4, ptr noundef %13) #16
  tail call void @N_VInv(ptr noundef %4, ptr noundef %4) #16
  tail call void @N_VLinearSum(double noundef 1.000000e-01, ptr noundef %6, double noundef 1.000000e+00, ptr noundef %4, ptr noundef %4) #16
  %15 = getelementptr inbounds nuw i8, ptr %0, i64 600
  %16 = load ptr, ptr %15, align 8, !tbaa !141
  tail call void @N_VAbs(ptr noundef %16, ptr noundef %6) #16
  tail call void @N_VDiv(ptr noundef %6, ptr noundef %4, ptr noundef %4) #16
  %17 = tail call double @N_VMaxNorm(ptr noundef %4) #16
  %18 = fmul double %1, 1.000000e-01
  %19 = fmul double %18, %17
  %20 = fcmp ogt double %19, 1.000000e+00
  %21 = fdiv double 1.000000e+00, %17
  %.0 = select i1 %20, double %21, double %18
  ret double %.0
}